; Function Attrs: mustprogress nofree norecurse nosync nounwind willreturn memory(read, inaccessiblemem: none) uwtable
define noundef zeroext i1 @_ZN8facebook5velox4exec4Expr29allSupportFlatNoNullsFastPathERKSt6vectorISt10shared_ptrIS2_ESaIS5_EE(ptr nocapture noundef nonnull readonly align 8 dereferenceable(24) %exprs) local_unnamed_addr #5 align 2 {
entry:
  %0 = load ptr, ptr %exprs, align 8
  %_M_finish.i = getelementptr inbounds i8, ptr %exprs, i64 8
  %1 = load ptr, ptr %_M_finish.i, align 8
  %cmp.i.not4 = icmp eq ptr %0, %1
  br i1 %cmp.i.not4, label %return, label %for.body

for.body:                                         ; preds = %entry, %for.body
  %__begin2.sroa.0.05 = phi ptr [ %incdec.ptr.i, %for.body ], [ %0, %entry ]
  %2 = load ptr, ptr %__begin2.sroa.0.05, align 8
  %supportsFlatNoNullsFastPath_.i = getelementptr inbounds i8, ptr %2, i64 97
  %3 = load i8, ptr %supportsFlatNoNullsFastPath_.i, align 1
  %4 = and i8 %3, 1
  %tobool.i.not.not = icmp ne i8 %4, 0
  %incdec.ptr.i = getelementptr inbounds i8, ptr %__begin2.sroa.0.05, i64 16
  %cmp.i.not = icmp ne ptr %incdec.ptr.i, %1
  %or.cond.not = select i1 %tobool.i.not.not, i1 %cmp.i.not, i1 false
  br i1 %or.cond.not, label %for.body, label %return

return:                                           ; preds = %for.body, %entry
  %cmp.i.not.lcssa = phi i1 [ true, %entry ], [ %tobool.i.not.not, %for.body ]
  ret i1 %cmp.i.not.lcssa
}